; Function Attrs: nounwind uwtable
define i32 @Sbd_StoComputeCutsNode(ptr noundef %0, i32 noundef %1) local_unnamed_addr #0 {
  %3 = getelementptr inbounds nuw i8, ptr %0, i64 24
  %4 = load ptr, ptr %3, align 8, !tbaa !3
  %5 = getelementptr i8, ptr %4, i64 32
  %.val = load ptr, ptr %5, align 8, !tbaa !14
  %6 = sext i32 %1 to i64
  %7 = getelementptr inbounds %struct.Gia_Obj_t_, ptr %.val, i64 %6
  %8 = getelementptr inbounds nuw i8, ptr %0, i64 48
  %9 = load ptr, ptr %8, align 8, !tbaa !85
  %.val15 = load i64, ptr %7, align 4
  %10 = trunc i64 %.val15 to i32
  %11 = and i32 %10, 536870911
  %12 = sub nsw i32 %1, %11
  %13 = getelementptr i8, ptr %9, i64 8
  %.val18 = load ptr, ptr %13, align 8, !tbaa !34
  %14 = sext i32 %12 to i64
  %15 = getelementptr inbounds i32, ptr %.val18, i64 %14
  %16 = load i32, ptr %15, align 4, !tbaa !35
  %17 = lshr i64 %.val15, 32
  %18 = trunc nuw i64 %17 to i32
  %19 = and i32 %18, 536870911
  %20 = sub nsw i32 %1, %19
  %21 = sext i32 %20 to i64
  %22 = getelementptr inbounds i32, ptr %.val18, i64 %21
  %23 = load i32, ptr %22, align 4, !tbaa !35
  %24 = tail call noundef i32 @llvm.smax.i32(i32 %16, i32 %23)
  %25 = add nsw i32 %24, 1
  tail call void @Sbd_StoComputeCutsObj(ptr noundef %0, i32 noundef %1, i32 noundef -1, i32 noundef %25)
  tail call void @Sbd_StoMergeCuts(ptr noundef %0, i32 noundef %1)
  %26 = getelementptr inbounds nuw i8, ptr %0, i64 40
  %27 = load ptr, ptr %26, align 8, !tbaa !82
  %28 = getelementptr i8, ptr %27, i64 8
  %.val16 = load ptr, ptr %28, align 8, !tbaa !34
  %29 = getelementptr inbounds i32, ptr %.val16, i64 %6
  %30 = load i32, ptr %29, align 4, !tbaa !35
  ret i32 %30
}